; Function Attrs: mustprogress nounwind uwtable
define internal void @_ZN7doctest6detail12ContextScopeIZN12_GLOBAL__N_121DOCTEST_ANON_CLASS_271fEvEUlPSoE1_ED2Ev(ptr noundef nonnull align 8 dereferenceable(24) initializes((0, 8)) %0) unnamed_addr #1 align 2 personality ptr @__gxx_personality_v0 {
  store ptr getelementptr inbounds nuw inrange(-16, 24) (i8, ptr @_ZTVN7doctest6detail12ContextScopeIZN12_GLOBAL__N_121DOCTEST_ANON_CLASS_271fEvEUlPSoE1_EE, i64 16), ptr %0, align 8
  %2 = getelementptr inbounds nuw i8, ptr %0, i64 8
  %3 = load i8, ptr %2, align 8
  %4 = trunc i8 %3 to i1
  br i1 %4, label %5, label %6

5:                                                ; preds = %1
  invoke void @_ZN7doctest6detail16ContextScopeBase7destroyEv(ptr noundef nonnull align 8 dereferenceable(9) %0)
          to label %6 unwind label %7

6:                                                ; preds = %5, %1
  tail call void @_ZN7doctest13IContextScopeD2Ev(ptr noundef nonnull align 8 dereferenceable(9) %0) #18
  ret void

7:                                                ; preds = %5
  %8 = landingpad { ptr, i32 }
          catch ptr null
  %9 = extractvalue { ptr, i32 } %8, 0
  tail call void @__clang_call_terminate(ptr %9) #16
  unreachable
}